target datalayout = "e-m:e-p270:32:32-p271:32:32-p272:64:64-i64:64-i128:128-f80:128-n8:16:32:64-S128"
target triple = "x86_64-pc-linux-gnu"

%struct.H5D_chunk_rec_t = type { [33 x i64], i32, i32, i64 }
%struct.H5D_bt2_ctx_t = type { i32, i64, i64, i32, ptr }

; Function Attrs: nounwind uwtable
define internal i32 @H5D__bt2_filt_encode(ptr noundef %0, ptr noundef %1, ptr noundef %2) #0 {
  %4 = alloca ptr, align 8
  %5 = alloca ptr, align 8
  %6 = alloca ptr, align 8
  %7 = alloca ptr, align 8
  %8 = alloca ptr, align 8
  %9 = alloca i32, align 4
  %10 = alloca i64, align 8
  %11 = alloca i64, align 8
  %12 = alloca ptr, align 8
  %13 = alloca i64, align 8
  %14 = alloca i64, align 8
  %15 = alloca ptr, align 8
  store ptr %0, ptr %4, align 8
  store ptr %1, ptr %5, align 8
  store ptr %2, ptr %6, align 8
  %16 = load ptr, ptr %6, align 8
  store ptr %16, ptr %7, align 8
  %17 = load ptr, ptr %5, align 8
  store ptr %17, ptr %8, align 8
  %18 = load ptr, ptr %7, align 8
  %19 = getelementptr inbounds %struct.H5D_bt2_ctx_t, ptr %18, i32 0, i32 1
  %20 = load i64, ptr %19, align 8
  %21 = load ptr, ptr %8, align 8
  %22 = getelementptr inbounds %struct.H5D_chunk_rec_t, ptr %21, i32 0, i32 3
  %23 = load i64, ptr %22, align 8
  call void @H5F_addr_encode_len(i64 noundef %20, ptr noundef %4, i64 noundef %23)
  br label %24

24:                                               ; preds = %3
  %25 = load ptr, ptr %8, align 8
  %26 = getelementptr inbounds %struct.H5D_chunk_rec_t, ptr %25, i32 0, i32 1
  %27 = load i32, ptr %26, align 8
  %28 = zext i32 %27 to i64
  store i64 %28, ptr %10, align 8
  %29 = load ptr, ptr %4, align 8
  store ptr %29, ptr %12, align 8
  store i64 0, ptr %11, align 8
  br label %30

30:                                               ; preds = %42, %24
  %31 = load i64, ptr %11, align 8
  %32 = load ptr, ptr %7, align 8
  %33 = getelementptr inbounds %struct.H5D_bt2_ctx_t, ptr %32, i32 0, i32 2
  %34 = load i64, ptr %33, align 8
  %35 = icmp ult i64 %31, %34
  br i1 %35, label %36, label %47

36:                                               ; preds = %30
  %37 = load i64, ptr %10, align 8
  %38 = and i64 %37, 255
  %39 = trunc i64 %38 to i8
  %40 = load ptr, ptr %12, align 8
  %41 = getelementptr inbounds i8, ptr %40, i32 1
  store ptr %41, ptr %12, align 8
  store i8 %39, ptr %40, align 1
  br label %42

42:                                               ; preds = %36
  %43 = load i64, ptr %11, align 8
  %44 = add i64 %43, 1
  store i64 %44, ptr %11, align 8
  %45 = load i64, ptr %10, align 8
  %46 = lshr i64 %45, 8
  store i64 %46, ptr %10, align 8
  br label %30

47:                                               ; preds = %30
  %48 = load ptr, ptr %4, align 8
  %49 = load ptr, ptr %7, align 8
  %50 = getelementptr inbounds %struct.H5D_bt2_ctx_t, ptr %49, i32 0, i32 2
  %51 = load i64, ptr %50, align 8
  %52 = getelementptr inbounds i8, ptr %48, i64 %51
  store ptr %52, ptr %4, align 8
  br label %53

53:                                               ; preds = %47
  br label %54

54:                                               ; preds = %53
  %55 = load ptr, ptr %8, align 8
  %56 = getelementptr inbounds %struct.H5D_chunk_rec_t, ptr %55, i32 0, i32 2
  %57 = load i32, ptr %56, align 4
  %58 = and i32 %57, 255
  %59 = trunc i32 %58 to i8
  %60 = load ptr, ptr %4, align 8
  store i8 %59, ptr %60, align 1
  %61 = load ptr, ptr %4, align 8
  %62 = getelementptr inbounds i8, ptr %61, i32 1
  store ptr %62, ptr %4, align 8
  %63 = load ptr, ptr %8, align 8
  %64 = getelementptr inbounds %struct.H5D_chunk_rec_t, ptr %63, i32 0, i32 2
  %65 = load i32, ptr %64, align 4
  %66 = lshr i32 %65, 8
  %67 = and i32 %66, 255
  %68 = trunc i32 %67 to i8
  %69 = load ptr, ptr %4, align 8
  store i8 %68, ptr %69, align 1
  %70 = load ptr, ptr %4, align 8
  %71 = getelementptr inbounds i8, ptr %70, i32 1
  store ptr %71, ptr %4, align 8
  %72 = load ptr, ptr %8, align 8
  %73 = getelementptr inbounds %struct.H5D_chunk_rec_t, ptr %72, i32 0, i32 2
  %74 = load i32, ptr %73, align 4
  %75 = lshr i32 %74, 16
  %76 = and i32 %75, 255
  %77 = trunc i32 %76 to i8
  %78 = load ptr, ptr %4, align 8
  store i8 %77, ptr %78, align 1
  %79 = load ptr, ptr %4, align 8
  %80 = getelementptr inbounds i8, ptr %79, i32 1
  store ptr %80, ptr %4, align 8
  %81 = load ptr, ptr %8, align 8
  %82 = getelementptr inbounds %struct.H5D_chunk_rec_t, ptr %81, i32 0, i32 2
  %83 = load i32, ptr %82, align 4
  %84 = lshr i32 %83, 24
  %85 = and i32 %84, 255
  %86 = trunc i32 %85 to i8
  %87 = load ptr, ptr %4, align 8
  store i8 %86, ptr %87, align 1
  %88 = load ptr, ptr %4, align 8
  %89 = getelementptr inbounds i8, ptr %88, i32 1
  store ptr %89, ptr %4, align 8
  br label %90

90:                                               ; preds = %54
  store i32 0, ptr %9, align 4
  br label %91

91:                                               ; preds = %134, %90
  %92 = load i32, ptr %9, align 4
  %93 = load ptr, ptr %7, align 8
  %94 = getelementptr inbounds %struct.H5D_bt2_ctx_t, ptr %93, i32 0, i32 3
  %95 = load i32, ptr %94, align 8
  %96 = icmp ult i32 %92, %95
  br i1 %96, label %97, label %137

97:                                               ; preds = %91
  br label %98

98:                                               ; preds = %97
  %99 = load ptr, ptr %8, align 8
  %100 = getelementptr inbounds %struct.H5D_chunk_rec_t, ptr %99, i32 0, i32 0
  %101 = load i32, ptr %9, align 4
  %102 = zext i32 %101 to i64
  %103 = getelementptr inbounds [33 x i64], ptr %100, i64 0, i64 %102
  %104 = load i64, ptr %103, align 8
  store i64 %104, ptr %13, align 8
  %105 = load ptr, ptr %4, align 8
  store ptr %105, ptr %15, align 8
  store i64 0, ptr %14, align 8
  br label %106

106:                                              ; preds = %115, %98
  %107 = load i64, ptr %14, align 8
  %108 = icmp ult i64 %107, 8
  br i1 %108, label %109, label %120

109:                                              ; preds = %106
  %110 = load i64, ptr %13, align 8
  %111 = and i64 %110, 255
  %112 = trunc i64 %111 to i8
  %113 = load ptr, ptr %15, align 8
  %114 = getelementptr inbounds i8, ptr %113, i32 1
  store ptr %114, ptr %15, align 8
  store i8 %112, ptr %113, align 1
  br label %115

115:                                              ; preds = %109
  %116 = load i64, ptr %14, align 8
  %117 = add i64 %116, 1
  store i64 %117, ptr %14, align 8
  %118 = load i64, ptr %13, align 8
  %119 = lshr i64 %118, 8
  store i64 %119, ptr %13, align 8
  br label %106

120:                                              ; preds = %106
  br label %121

121:                                              ; preds = %127, %120
  %122 = load i64, ptr %14, align 8
  %123 = icmp ult i64 %122, 8
  br i1 %123, label %124, label %130

124:                                              ; preds = %121
  %125 = load ptr, ptr %15, align 8
  %126 = getelementptr inbounds i8, ptr %125, i32 1
  store ptr %126, ptr %15, align 8
  store i8 0, ptr %125, align 1
  br label %127

127:                                              ; preds = %124
  %128 = load i64, ptr %14, align 8
  %129 = add i64 %128, 1
  store i64 %129, ptr %14, align 8
  br label %121

130:                                              ; preds = %121
  %131 = load ptr, ptr %4, align 8
  %132 = getelementptr inbounds i8, ptr %131, i64 8
  store ptr %132, ptr %4, align 8
  br label %133

133:                                              ; preds = %130
  br label %134

134:                                              ; preds = %133
  %135 = load i32, ptr %9, align 4
  %136 = add i32 %135, 1
  store i32 %136, ptr %9, align 4
  br label %91

137:                                              ; preds = %91
  ret i32 0
}