; Function Attrs: nounwind uwtable
define internal noundef i32 @H5D__bt2_filt_encode(ptr noundef %0, ptr nocapture noundef readonly %1, ptr nocapture noundef readonly %2) #1 {
  %4 = alloca ptr, align 8
  store ptr %0, ptr %4, align 8
  %5 = getelementptr inbounds i8, ptr %2, i64 8
  %6 = load i64, ptr %5, align 8
  %7 = getelementptr inbounds i8, ptr %1, i64 272
  %8 = load i64, ptr %7, align 8
  call void @H5F_addr_encode_len(i64 noundef %6, ptr noundef nonnull %4, i64 noundef %8) #14
  %9 = load ptr, ptr %4, align 8
  %10 = getelementptr inbounds i8, ptr %2, i64 16
  %11 = load i64, ptr %10, align 8
  %.not = icmp eq i64 %11, 0
  br i1 %.not, label %._crit_edge, label %.lr.ph.preheader

.lr.ph.preheader:                                 ; preds = %3
  %12 = getelementptr inbounds i8, ptr %1, i64 264
  %13 = load i32, ptr %12, align 8
  br label %.lr.ph

.lr.ph:                                           ; preds = %.lr.ph.preheader, %.lr.ph
  %.03138 = phi ptr [ %15, %.lr.ph ], [ %9, %.lr.ph.preheader ]
  %.03237 = phi i64 [ %16, %.lr.ph ], [ 0, %.lr.ph.preheader ]
  %.03336 = phi i32 [ %17, %.lr.ph ], [ %13, %.lr.ph.preheader ]
  %14 = trunc i32 %.03336 to i8
  %15 = getelementptr inbounds i8, ptr %.03138, i64 1
  store i8 %14, ptr %.03138, align 1
  %16 = add nuw i64 %.03237, 1
  %17 = lshr i32 %.03336, 8
  %18 = load i64, ptr %10, align 8
  %19 = icmp ult i64 %16, %18
  br i1 %19, label %.lr.ph, label %._crit_edge.loopexit

._crit_edge.loopexit:                             ; preds = %.lr.ph
  %.pre = load ptr, ptr %4, align 8
  br label %._crit_edge

._crit_edge:                                      ; preds = %._crit_edge.loopexit, %3
  %20 = phi ptr [ %9, %3 ], [ %.pre, %._crit_edge.loopexit ]
  %.lcssa = phi i64 [ 0, %3 ], [ %18, %._crit_edge.loopexit ]
  %21 = getelementptr inbounds i8, ptr %20, i64 %.lcssa
  store ptr %21, ptr %4, align 8
  %22 = getelementptr inbounds i8, ptr %1, i64 268
  %23 = load i32, ptr %22, align 4
  %24 = trunc i32 %23 to i8
  store i8 %24, ptr %21, align 1
  %25 = load ptr, ptr %4, align 8
  %26 = getelementptr inbounds i8, ptr %25, i64 1
  store ptr %26, ptr %4, align 8
  %27 = load i32, ptr %22, align 4
  %28 = lshr i32 %27, 8
  %29 = trunc i32 %28 to i8
  store i8 %29, ptr %26, align 1
  %30 = load ptr, ptr %4, align 8
  %31 = getelementptr inbounds i8, ptr %30, i64 1
  store ptr %31, ptr %4, align 8
  %32 = load i32, ptr %22, align 4
  %33 = lshr i32 %32, 16
  %34 = trunc i32 %33 to i8
  store i8 %34, ptr %31, align 1
  %35 = load ptr, ptr %4, align 8
  %36 = getelementptr inbounds i8, ptr %35, i64 1
  store ptr %36, ptr %4, align 8
  %37 = load i32, ptr %22, align 4
  %38 = lshr i32 %37, 24
  %39 = trunc nuw i32 %38 to i8
  store i8 %39, ptr %36, align 1
  %40 = load ptr, ptr %4, align 8
  %41 = getelementptr inbounds i8, ptr %40, i64 1
  store ptr %41, ptr %4, align 8
  %42 = getelementptr inbounds i8, ptr %2, i64 24
  %43 = load i32, ptr %42, align 8
  %.not46 = icmp eq i32 %43, 0
  br i1 %.not46, label %._crit_edge45, label %.lr.ph44

.lr.ph44:                                         ; preds = %._crit_edge, %52
  %44 = phi ptr [ %54, %52 ], [ %41, %._crit_edge ]
  %indvars.iv = phi i64 [ %indvars.iv.next, %52 ], [ 0, %._crit_edge ]
  %45 = getelementptr inbounds [33 x i64], ptr %1, i64 0, i64 %indvars.iv
  %46 = load i64, ptr %45, align 8
  br label %47

47:                                               ; preds = %.lr.ph44, %47
  %.041 = phi ptr [ %44, %.lr.ph44 ], [ %49, %47 ]
  %.02840 = phi i64 [ 0, %.lr.ph44 ], [ %50, %47 ]
  %.03039 = phi i64 [ %46, %.lr.ph44 ], [ %51, %47 ]
  %48 = trunc i64 %.03039 to i8
  %49 = getelementptr inbounds i8, ptr %.041, i64 1
  store i8 %48, ptr %.041, align 1
  %50 = add nuw nsw i64 %.02840, 1
  %51 = lshr i64 %.03039, 8
  %exitcond.not = icmp eq i64 %50, 8
  br i1 %exitcond.not, label %52, label %47

52:                                               ; preds = %47
  %53 = load ptr, ptr %4, align 8
  %54 = getelementptr inbounds i8, ptr %53, i64 8
  store ptr %54, ptr %4, align 8
  %indvars.iv.next = add nuw nsw i64 %indvars.iv, 1
  %55 = load i32, ptr %42, align 8
  %56 = zext i32 %55 to i64
  %57 = icmp ult i64 %indvars.iv.next, %56
  br i1 %57, label %.lr.ph44, label %._crit_edge45

._crit_edge45:                                    ; preds = %52, %._crit_edge
  ret i32 0
}